; ModuleID = '46/3664.c'
source_filename = "46/3664.c"
target datalayout = "e-m:e-p270:32:32-p271:32:32-p272:64:64-i64:64-f80:128-n8:16:32:64-S128"
target triple = "x86_64-pc-linux-gnu"

@.str = private unnamed_addr constant [5 x i8] c"%d%d\00", align 1
@.str.1 = private unnamed_addr constant [3 x i8] c"%d\00", align 1
@.str.2 = private unnamed_addr constant [4 x i8] c"%d\0A\00", align 1

; Function Attrs: noinline nounwind uwtable
define dso_local i32 @main() #0 {
  %1 = alloca i32, align 4
  %2 = alloca i32, align 4
  %3 = alloca i32, align 4
  %4 = alloca i32, align 4
  %5 = alloca i32, align 4
  %6 = alloca i32, align 4
  %7 = alloca i32, align 4
  %8 = alloca i32, align 4
  %9 = alloca i32, align 4
  %10 = alloca [100 x [100 x i32]], align 16
  store i32 0, i32* %1, align 4
  %11 = call i32 (i8*, ...) @__isoc99_scanf(i8* getelementptr inbounds ([5 x i8], [5 x i8]* @.str, i64 0, i64 0), i32* %2, i32* %3)
  store i32 0, i32* %8, align 4
  br label %12

12:                                               ; preds = %33, %0
  %13 = load i32, i32* %8, align 4
  %14 = load i32, i32* %2, align 4
  %15 = icmp slt i32 %13, %14
  br i1 %15, label %16, label %36

16:                                               ; preds = %12
  store i32 0, i32* %9, align 4
  br label %17

17:                                               ; preds = %29, %16
  %18 = load i32, i32* %9, align 4
  %19 = load i32, i32* %3, align 4
  %20 = icmp slt i32 %18, %19
  br i1 %20, label %21, label %32

21:                                               ; preds = %17
  %22 = load i32, i32* %8, align 4
  %23 = sext i32 %22 to i64
  %24 = getelementptr inbounds [100 x [100 x i32]], [100 x [100 x i32]]* %10, i64 0, i64 %23
  %25 = load i32, i32* %9, align 4
  %26 = sext i32 %25 to i64
  %27 = getelementptr inbounds [100 x i32], [100 x i32]* %24, i64 0, i64 %26
  %28 = call i32 (i8*, ...) @__isoc99_scanf(i8* getelementptr inbounds ([3 x i8], [3 x i8]* @.str.1, i64 0, i64 0), i32* %27)
  br label %29

29:                                               ; preds = %21
  %30 = load i32, i32* %9, align 4
  %31 = add nsw i32 %30, 1
  store i32 %31, i32* %9, align 4
  br label %17

32:                                               ; preds = %17
  br label %33

33:                                               ; preds = %32
  %34 = load i32, i32* %8, align 4
  %35 = add nsw i32 %34, 1
  store i32 %35, i32* %8, align 4
  br label %12

36:                                               ; preds = %12
  store i32 0, i32* %4, align 4
  store i32 0, i32* %6, align 4
  %37 = load i32, i32* %3, align 4
  %38 = sub nsw i32 %37, 1
  store i32 %38, i32* %5, align 4
  %39 = load i32, i32* %2, align 4
  %40 = sub nsw i32 %39, 1
  store i32 %40, i32* %7, align 4
  br label %41

41:                                               ; preds = %181, %36
  %42 = load i32, i32* %4, align 4
  %43 = load i32, i32* %5, align 4
  %44 = icmp sle i32 %42, %43
  br i1 %44, label %45, label %49

45:                                               ; preds = %41
  %46 = load i32, i32* %6, align 4
  %47 = load i32, i32* %7, align 4
  %48 = icmp sle i32 %46, %47
  br label %49

49:                                               ; preds = %45, %41
  %50 = phi i1 [ false, %41 ], [ %48, %45 ]
  br i1 %50, label %51, label %190

51:                                               ; preds = %49
  %52 = load i32, i32* %4, align 4
  %53 = load i32, i32* %5, align 4
  %54 = icmp ne i32 %52, %53
  br i1 %54, label %55, label %132

55:                                               ; preds = %51
  %56 = load i32, i32* %6, align 4
  %57 = load i32, i32* %7, align 4
  %58 = icmp ne i32 %56, %57
  br i1 %58, label %59, label %132

59:                                               ; preds = %55
  %60 = load i32, i32* %4, align 4
  store i32 %60, i32* %9, align 4
  br label %61

61:                                               ; preds = %74, %59
  %62 = load i32, i32* %9, align 4
  %63 = load i32, i32* %5, align 4
  %64 = icmp slt i32 %62, %63
  br i1 %64, label %65, label %77

65:                                               ; preds = %61
  %66 = load i32, i32* %6, align 4
  %67 = sext i32 %66 to i64
  %68 = getelementptr inbounds [100 x [100 x i32]], [100 x [100 x i32]]* %10, i64 0, i64 %67
  %69 = load i32, i32* %9, align 4
  %70 = sext i32 %69 to i64
  %71 = getelementptr inbounds [100 x i32], [100 x i32]* %68, i64 0, i64 %70
  %72 = load i32, i32* %71, align 4
  %73 = call i32 (i8*, ...) @printf(i8* getelementptr inbounds ([4 x i8], [4 x i8]* @.str.2, i64 0, i64 0), i32 %72)
  br label %74

74:                                               ; preds = %65
  %75 = load i32, i32* %9, align 4
  %76 = add nsw i32 %75, 1
  store i32 %76, i32* %9, align 4
  br label %61

77:                                               ; preds = %61
  %78 = load i32, i32* %6, align 4
  store i32 %78, i32* %9, align 4
  br label %79

79:                                               ; preds = %92, %77
  %80 = load i32, i32* %9, align 4
  %81 = load i32, i32* %7, align 4
  %82 = icmp slt i32 %80, %81
  br i1 %82, label %83, label %95

83:                                               ; preds = %79
  %84 = load i32, i32* %9, align 4
  %85 = sext i32 %84 to i64
  %86 = getelementptr inbounds [100 x [100 x i32]], [100 x [100 x i32]]* %10, i64 0, i64 %85
  %87 = load i32, i32* %5, align 4
  %88 = sext i32 %87 to i64
  %89 = getelementptr inbounds [100 x i32], [100 x i32]* %86, i64 0, i64 %88
  %90 = load i32, i32* %89, align 4
  %91 = call i32 (i8*, ...) @printf(i8* getelementptr inbounds ([4 x i8], [4 x i8]* @.str.2, i64 0, i64 0), i32 %90)
  br label %92

92:                                               ; preds = %83
  %93 = load i32, i32* %9, align 4
  %94 = add nsw i32 %93, 1
  store i32 %94, i32* %9, align 4
  br label %79

95:                                               ; preds = %79
  %96 = load i32, i32* %5, align 4
  store i32 %96, i32* %9, align 4
  br label %97

97:                                               ; preds = %110, %95
  %98 = load i32, i32* %9, align 4
  %99 = load i32, i32* %4, align 4
  %100 = icmp sgt i32 %98, %99
  br i1 %100, label %101, label %113

101:                                              ; preds = %97
  %102 = load i32, i32* %7, align 4
  %103 = sext i32 %102 to i64
  %104 = getelementptr inbounds [100 x [100 x i32]], [100 x [100 x i32]]* %10, i64 0, i64 %103
  %105 = load i32, i32* %9, align 4
  %106 = sext i32 %105 to i64
  %107 = getelementptr inbounds [100 x i32], [100 x i32]* %104, i64 0, i64 %106
  %108 = load i32, i32* %107, align 4
  %109 = call i32 (i8*, ...) @printf(i8* getelementptr inbounds ([4 x i8], [4 x i8]* @.str.2, i64 0, i64 0), i32 %108)
  br label %110

110:                                              ; preds = %101
  %111 = load i32, i32* %9, align 4
  %112 = add nsw i32 %111, -1
  store i32 %112, i32* %9, align 4
  br label %97

113:                                              ; preds = %97
  %114 = load i32, i32* %7, align 4
  store i32 %114, i32* %9, align 4
  br label %115

115:                                              ; preds = %128, %113
  %116 = load i32, i32* %9, align 4
  %117 = load i32, i32* %6, align 4
  %118 = icmp sgt i32 %116, %117
  br i1 %118, label %119, label %131

119:                                              ; preds = %115
  %120 = load i32, i32* %9, align 4
  %121 = sext i32 %120 to i64
  %122 = getelementptr inbounds [100 x [100 x i32]], [100 x [100 x i32]]* %10, i64 0, i64 %121
  %123 = load i32, i32* %4, align 4
  %124 = sext i32 %123 to i64
  %125 = getelementptr inbounds [100 x i32], [100 x i32]* %122, i64 0, i64 %124
  %126 = load i32, i32* %125, align 4
  %127 = call i32 (i8*, ...) @printf(i8* getelementptr inbounds ([4 x i8], [4 x i8]* @.str.2, i64 0, i64 0), i32 %126)
  br label %128

128:                                              ; preds = %119
  %129 = load i32, i32* %9, align 4
  %130 = add nsw i32 %129, -1
  store i32 %130, i32* %9, align 4
  br label %115

131:                                              ; preds = %115
  br label %180

132:                                              ; preds = %55, %51
  %133 = load i32, i32* %4, align 4
  %134 = load i32, i32* %5, align 4
  %135 = icmp eq i32 %133, %134
  br i1 %135, label %136, label %155

136:                                              ; preds = %132
  %137 = load i32, i32* %6, align 4
  store i32 %137, i32* %9, align 4
  br label %138

138:                                              ; preds = %151, %136
  %139 = load i32, i32* %9, align 4
  %140 = load i32, i32* %7, align 4
  %141 = icmp sle i32 %139, %140
  br i1 %141, label %142, label %154

142:                                              ; preds = %138
  %143 = load i32, i32* %9, align 4
  %144 = sext i32 %143 to i64
  %145 = getelementptr inbounds [100 x [100 x i32]], [100 x [100 x i32]]* %10, i64 0, i64 %144
  %146 = load i32, i32* %4, align 4
  %147 = sext i32 %146 to i64
  %148 = getelementptr inbounds [100 x i32], [100 x i32]* %145, i64 0, i64 %147
  %149 = load i32, i32* %148, align 4
  %150 = call i32 (i8*, ...) @printf(i8* getelementptr inbounds ([4 x i8], [4 x i8]* @.str.2, i64 0, i64 0), i32 %149)
  br label %151

151:                                              ; preds = %142
  %152 = load i32, i32* %9, align 4
  %153 = add nsw i32 %152, 1
  store i32 %153, i32* %9, align 4
  br label %138

154:                                              ; preds = %138
  br label %179

155:                                              ; preds = %132
  %156 = load i32, i32* %6, align 4
  %157 = load i32, i32* %7, align 4
  %158 = icmp eq i32 %156, %157
  br i1 %158, label %159, label %178

159:                                              ; preds = %155
  %160 = load i32, i32* %4, align 4
  store i32 %160, i32* %9, align 4
  br label %161

161:                                              ; preds = %174, %159
  %162 = load i32, i32* %9, align 4
  %163 = load i32, i32* %5, align 4
  %164 = icmp sle i32 %162, %163
  br i1 %164, label %165, label %177

165:                                              ; preds = %161
  %166 = load i32, i32* %6, align 4
  %167 = sext i32 %166 to i64
  %168 = getelementptr inbounds [100 x [100 x i32]], [100 x [100 x i32]]* %10, i64 0, i64 %167
  %169 = load i32, i32* %9, align 4
  %170 = sext i32 %169 to i64
  %171 = getelementptr inbounds [100 x i32], [100 x i32]* %168, i64 0, i64 %170
  %172 = load i32, i32* %171, align 4
  %173 = call i32 (i8*, ...) @printf(i8* getelementptr inbounds ([4 x i8], [4 x i8]* @.str.2, i64 0, i64 0), i32 %172)
  br label %174

174:                                              ; preds = %165
  %175 = load i32, i32* %9, align 4
  %176 = add nsw i32 %175, 1
  store i32 %176, i32* %9, align 4
  br label %161

177:                                              ; preds = %161
  br label %178

178:                                              ; preds = %177, %155
  br label %179

179:                                              ; preds = %178, %154
  br label %180

180:                                              ; preds = %179, %131
  br label %181

181:                                              ; preds = %180
  %182 = load i32, i32* %4, align 4
  %183 = add nsw i32 %182, 1
  store i32 %183, i32* %4, align 4
  %184 = load i32, i32* %6, align 4
  %185 = add nsw i32 %184, 1
  store i32 %185, i32* %6, align 4
  %186 = load i32, i32* %5, align 4
  %187 = add nsw i32 %186, -1
  store i32 %187, i32* %5, align 4
  %188 = load i32, i32* %7, align 4
  %189 = add nsw i32 %188, -1
  store i32 %189, i32* %7, align 4
  br label %41

190:                                              ; preds = %49
  ret i32 0
}

declare dso_local i32 @__isoc99_scanf(i8*, ...) #1

declare dso_local i32 @printf(i8*, ...) #1


!llvm.module.flags = !{!0}
!llvm.ident = !{!1}

!0 = !{i32 1, !"wchar_size", i32 4}
!1 = !{!"clang version 10.0.0-4ubuntu1 "}
